target datalayout = "e-m:e-p270:32:32-p271:32:32-p272:64:64-i64:64-i128:128-f80:128-n8:16:32:64-S128"
target triple = "x86_64-pc-linux-gnu"

%struct.UConverter = type { ptr, ptr, ptr, ptr, ptr, ptr, ptr, i32, i8, i8, i8, i8, i8, [7 x i8], i32, i32, i32, i32, i8, i8, i8, i8, i8, i8, i8, i8, [8 x i8], [32 x i8], [2 x i16], [2 x i16], [32 x i16], i32, [19 x i16], [31 x i8], i8, i8, i8, i32 }
%struct.UConverterSharedData = type { i32, i32, ptr, ptr, i8, i8, ptr, i32, %struct.UConverterMBCSTable }
%struct.UConverterMBCSTable = type { i8, i8, i8, i32, ptr, ptr, ptr, ptr, ptr, ptr, [64 x i16], ptr, ptr, i32, i8, i8, i8, i16, i32, ptr, ptr, ptr, ptr }
%struct.UConverterStaticData = type { i32, [60 x i8], i32, i8, i8, i8, i8, [4 x i8], i8, i8, i8, i8, i8, [19 x i8] }

; Function Attrs: mustprogress uwtable
define i32 @ucnv_getType_77(ptr noundef %0) #0 {
  %2 = alloca i32, align 4
  %3 = alloca ptr, align 8
  %4 = alloca i8, align 1
  %5 = alloca i32, align 4
  store ptr %0, ptr %3, align 8, !tbaa !11
  call void @llvm.lifetime.start.p0(i64 1, ptr %4) #11
  %6 = load ptr, ptr %3, align 8, !tbaa !11
  %7 = getelementptr inbounds nuw %struct.UConverter, ptr %6, i32 0, i32 6
  %8 = load ptr, ptr %7, align 8, !tbaa !22
  %9 = getelementptr inbounds nuw %struct.UConverterSharedData, ptr %8, i32 0, i32 3
  %10 = load ptr, ptr %9, align 8, !tbaa !53
  %11 = getelementptr inbounds nuw %struct.UConverterStaticData, ptr %10, i32 0, i32 4
  %12 = load i8, ptr %11, align 1, !tbaa !59
  store i8 %12, ptr %4, align 1, !tbaa !19
  %13 = load i8, ptr %4, align 1, !tbaa !19
  %14 = sext i8 %13 to i32
  %15 = icmp eq i32 %14, 2
  br i1 %15, label %16, label %19

16:                                               ; preds = %1
  %17 = load ptr, ptr %3, align 8, !tbaa !11
  %18 = call i32 @ucnv_MBCSGetType_77(ptr noundef %17)
  store i32 %18, ptr %2, align 4
  store i32 1, ptr %5, align 4
  br label %22

19:                                               ; preds = %1
  %20 = load i8, ptr %4, align 1, !tbaa !19
  %21 = sext i8 %20 to i32
  store i32 %21, ptr %2, align 4
  store i32 1, ptr %5, align 4
  br label %22

22:                                               ; preds = %19, %16
  call void @llvm.lifetime.end.p0(i64 1, ptr %4) #11
  %23 = load i32, ptr %2, align 4
  ret i32 %23
}

; Function Attrs: inlinehint mustprogress nounwind uwtable
define internal noundef signext i8 @_ZL9U_FAILURE10UErrorCode(i32 noundef %0) #2 {
  %2 = alloca i32, align 4
  store i32 %0, ptr %2, align 4, !tbaa !9
  %3 = load i32, ptr %2, align 4, !tbaa !9
  %4 = icmp sgt i32 %3, 0
  %5 = zext i1 %4 to i8
  ret i8 %5
}

; Function Attrs: mustprogress uwtable
define signext i8 @ucnv_isFixedWidth_77(ptr noundef %0, ptr noundef %1) #0 {
  %3 = alloca i8, align 1
  %4 = alloca ptr, align 8
  %5 = alloca ptr, align 8
  store ptr %0, ptr %4, align 8, !tbaa !11
  store ptr %1, ptr %5, align 8, !tbaa !8
  %6 = load ptr, ptr %5, align 8, !tbaa !8
  %7 = load i32, ptr %6, align 4, !tbaa !9
  %8 = call noundef signext i8 @_ZL9U_FAILURE10UErrorCode(i32 noundef %7)
  %9 = icmp ne i8 %8, 0
  br i1 %9, label %10, label %11

10:                                               ; preds = %2
  store i8 0, ptr %3, align 1
  br label %21

11:                                               ; preds = %2
  %12 = load ptr, ptr %4, align 8, !tbaa !11
  %13 = icmp eq ptr %12, null
  br i1 %13, label %14, label %16

14:                                               ; preds = %11
  %15 = load ptr, ptr %5, align 8, !tbaa !8
  store i32 1, ptr %15, align 4, !tbaa !9
  store i8 0, ptr %3, align 1
  br label %21

16:                                               ; preds = %11
  %17 = load ptr, ptr %4, align 8, !tbaa !11
  %18 = call i32 @ucnv_getType_77(ptr noundef %17)
  switch i32 %18, label %20 [
    i32 0, label %19
    i32 1, label %19
    i32 7, label %19
    i32 8, label %19
    i32 30, label %19
    i32 26, label %19
  ]

19:                                               ; preds = %16, %16, %16, %16, %16, %16
  store i8 1, ptr %3, align 1
  br label %21

20:                                               ; preds = %16
  store i8 0, ptr %3, align 1
  br label %21

21:                                               ; preds = %20, %19, %14, %10
  %22 = load i8, ptr %3, align 1
  ret i8 %22
}