; Function Attrs: mustprogress uwtable
define signext range(i8 0, 2) i8 @ucnv_isFixedWidth_77(ptr noundef %0, ptr noundef captures(none) %1) local_unnamed_addr #0 {
  %3 = load i32, ptr %1, align 4, !tbaa !3
  %4 = icmp slt i32 %3, 1
  br i1 %4, label %5, label %21

5:                                                ; preds = %2
  %6 = icmp eq ptr %0, null
  br i1 %6, label %7, label %8

7:                                                ; preds = %5
  store i32 1, ptr %1, align 4, !tbaa !3
  br label %21

8:                                                ; preds = %5
  %9 = getelementptr inbounds nuw i8, ptr %0, i64 48
  %10 = load ptr, ptr %9, align 8, !tbaa !8
  %11 = getelementptr inbounds nuw i8, ptr %10, i64 16
  %12 = load ptr, ptr %11, align 8, !tbaa !44
  %13 = getelementptr inbounds nuw i8, ptr %12, i64 69
  %14 = load i8, ptr %13, align 1, !tbaa !50
  %15 = icmp eq i8 %14, 2
  br i1 %15, label %16, label %18

16:                                               ; preds = %8
  %17 = tail call i32 @ucnv_MBCSGetType_77(ptr noundef nonnull %0)
  br label %ucnv_getType_77.exit

18:                                               ; preds = %8
  %19 = sext i8 %14 to i32
  br label %ucnv_getType_77.exit

ucnv_getType_77.exit:                             ; preds = %16, %18
  %.0.i = phi i32 [ %17, %16 ], [ %19, %18 ]
  switch i32 %.0.i, label %20 [
    i32 0, label %21
    i32 1, label %21
    i32 7, label %21
    i32 8, label %21
    i32 30, label %21
    i32 26, label %21
  ]

20:                                               ; preds = %ucnv_getType_77.exit
  br label %21

21:                                               ; preds = %ucnv_getType_77.exit, %ucnv_getType_77.exit, %ucnv_getType_77.exit, %ucnv_getType_77.exit, %ucnv_getType_77.exit, %ucnv_getType_77.exit, %2, %20, %7
  %.0 = phi i8 [ 0, %7 ], [ 0, %20 ], [ 0, %2 ], [ 1, %ucnv_getType_77.exit ], [ 1, %ucnv_getType_77.exit ], [ 1, %ucnv_getType_77.exit ], [ 1, %ucnv_getType_77.exit ], [ 1, %ucnv_getType_77.exit ], [ 1, %ucnv_getType_77.exit ]
  ret i8 %.0
}